; Function Attrs: mustprogress nounwind uwtable
define internal void @_ZN7testing12_GLOBAL__N_124ParameterizedTestFactoryIN11opencv_test24BroadcastTest_basic_TestEED2Ev(ptr nocapture noundef nonnull align 8 dereferenceable(64) %0) unnamed_addr #7 align 2 personality ptr @__gxx_personality_v0 {
  store ptr getelementptr inbounds inrange(-16, 24) (i8, ptr @_ZTVN7testing12_GLOBAL__N_124ParameterizedTestFactoryIN11opencv_test24BroadcastTest_basic_TestEEE, i64 16), ptr %0, align 8
  %2 = getelementptr inbounds i8, ptr %0, i64 8
  %3 = getelementptr inbounds i8, ptr %0, i64 40
  %4 = load ptr, ptr %3, align 8
  %.not.i.i.i.i.i.i = icmp eq ptr %4, null
  br i1 %.not.i.i.i.i.i.i, label %_ZNSt10_Head_baseILm0ESt6vectorIiSaIiEELb0EED2Ev.exit.i.i, label %5

5:                                                ; preds = %1
  tail call void @_ZdlPv(ptr noundef nonnull %4) #29
  br label %_ZNSt10_Head_baseILm0ESt6vectorIiSaIiEELb0EED2Ev.exit.i.i

_ZNSt10_Head_baseILm0ESt6vectorIiSaIiEELb0EED2Ev.exit.i.i: ; preds = %5, %1
  %6 = load ptr, ptr %2, align 8
  %.not.i.i.i.i.i.i.i.i = icmp eq ptr %6, null
  br i1 %.not.i.i.i.i.i.i.i.i, label %_ZNSt5tupleIJSt6vectorIiSaIiEEN4perf7MatTypeES2_EED2Ev.exit, label %7

7:                                                ; preds = %_ZNSt10_Head_baseILm0ESt6vectorIiSaIiEELb0EED2Ev.exit.i.i
  tail call void @_ZdlPv(ptr noundef nonnull %6) #29
  br label %_ZNSt5tupleIJSt6vectorIiSaIiEEN4perf7MatTypeES2_EED2Ev.exit

_ZNSt5tupleIJSt6vectorIiSaIiEEN4perf7MatTypeES2_EED2Ev.exit: ; preds = %_ZNSt10_Head_baseILm0ESt6vectorIiSaIiEELb0EED2Ev.exit.i.i, %7
  ret void
}